target datalayout = "e-m:e-p270:32:32-p271:32:32-p272:64:64-i64:64-i128:128-f80:128-n8:16:32:64-S128"
target triple = "x86_64-pc-linux-gnu"

%struct._psqlSettings = type { ptr, i32, ptr, i8, ptr, ptr, %struct.printQueryOpt, ptr, ptr, ptr, i8, i8, i32, i32, ptr, ptr, i8, [4 x ptr], i8, i32, ptr, i8, i32, ptr, ptr, i64, i64, i8, ptr, ptr, ptr, i8, i8, i8, i8, i8, i8, i8, i32, i32, i32, i32, i32, i32, i32, i32, ptr, ptr, ptr, i32, i8, i32 }
%struct.printQueryOpt = type { %struct.printTableOpt, ptr, ptr, ptr, i8, ptr, i32 }
%struct.printTableOpt = type { i32, i16, i32, i32, i16, i16, i32, i8, i8, i8, i8, i64, ptr, %struct.separator, %struct.separator, [2 x i8], i8, ptr, i32, i32, i32, i32, i32, i32 }
%struct.separator = type { ptr, i8 }
%struct.PQExpBufferData = type { ptr, i64, i64 }

@pset = external global %struct._psqlSettings, align 8
@.str.26 = private unnamed_addr constant [6 x i8] c"Owner\00", align 1
@.str.108 = private unnamed_addr constant [10 x i8] c"t.typname\00", align 1
@.str.109 = private unnamed_addr constant [36 x i8] c"pg_catalog.format_type(t.oid, NULL)\00", align 1
@.str.110 = private unnamed_addr constant [37 x i8] c"pg_catalog.pg_type_is_visible(t.oid)\00", align 1
@.str.111 = private unnamed_addr constant [15 x i8] c"ORDER BY 1, 2;\00", align 1
@.str.566 = private unnamed_addr constant [3 x i8] c"AM\00", align 1
@.str.571 = private unnamed_addr constant [16 x i8] c"Operator family\00", align 1
@.str.574 = private unnamed_addr constant [10 x i8] c"am.amname\00", align 1
@.str.575 = private unnamed_addr constant [11 x i8] c"tn.nspname\00", align 1
@listOperatorFamilies.translate_columns = internal constant [4 x i8] zeroinitializer, align 1
@.str.578 = private unnamed_addr constant [17 x i8] c"Applicable types\00", align 1
@.str.579 = private unnamed_addr constant [52 x i8] c",\0A  pg_catalog.pg_get_userbyid(f.opfowner) AS \22%s\22\0A\00", align 1
@.str.580 = private unnamed_addr constant [152 x i8] c"\0AFROM pg_catalog.pg_opfamily f\0A  LEFT JOIN pg_catalog.pg_am am on am.oid = f.opfmethod\0A  LEFT JOIN pg_catalog.pg_namespace n ON n.oid = f.opfnamespace\0A\00", align 1
@.str.581 = private unnamed_addr constant [215 x i8] c"  %s EXISTS (\0A    SELECT 1\0A    FROM pg_catalog.pg_type t\0A    JOIN pg_catalog.pg_opclass oc ON oc.opcintype = t.oid\0A    LEFT JOIN pg_catalog.pg_namespace tn ON tn.oid = t.typnamespace\0A    WHERE oc.opcfamily = f.oid\0A\00", align 1
@.str.582 = private unnamed_addr constant [4 x i8] c"AND\00", align 1
@.str.583 = private unnamed_addr constant [6 x i8] c"WHERE\00", align 1
@.str.584 = private unnamed_addr constant [5 x i8] c"  )\0A\00", align 1
@.str.585 = private unnamed_addr constant [26 x i8] c"List of operator families\00", align 1

; Function Attrs: nounwind uwtable
define dso_local zeroext i1 @listOperatorFamilies(ptr noundef %0, ptr noundef %1, i1 noundef zeroext %2) #0 {
  %4 = alloca i1, align 1
  %5 = alloca ptr, align 8
  %6 = alloca ptr, align 8
  %7 = alloca i8, align 1
  %8 = alloca %struct.PQExpBufferData, align 8
  %9 = alloca ptr, align 8
  %10 = alloca %struct.printQueryOpt, align 8
  %11 = alloca i8, align 1
  %12 = alloca i32, align 4
  store ptr %0, ptr %5, align 8
  store ptr %1, ptr %6, align 8
  %13 = zext i1 %2 to i8
  store i8 %13, ptr %7, align 1
  call void @llvm.lifetime.start.p0(i64 24, ptr %8) #8
  call void @llvm.lifetime.start.p0(i64 8, ptr %9) #8
  call void @llvm.lifetime.start.p0(i64 168, ptr %10) #8
  call void @llvm.memcpy.p0.p0.i64(ptr align 8 %10, ptr align 8 getelementptr inbounds nuw (%struct._psqlSettings, ptr @pset, i32 0, i32 6), i64 168, i1 false)
  call void @llvm.lifetime.start.p0(i64 1, ptr %11) #8
  store i8 0, ptr %11, align 1
  call void @initPQExpBuffer(ptr noundef %8)
  call void (ptr, ptr, ...) @printfPQExpBuffer(ptr noundef %8, ptr noundef @.str.577, ptr noundef @.str.566, ptr noundef @.str.571, ptr noundef @.str.578)
  %14 = load i8, ptr %7, align 1, !range !4, !noundef !5
  %15 = trunc i8 %14 to i1
  br i1 %15, label %16, label %17

16:                                               ; preds = %3
  call void (ptr, ptr, ...) @appendPQExpBuffer(ptr noundef %8, ptr noundef @.str.579, ptr noundef @.str.26)
  br label %17

17:                                               ; preds = %16, %3
  call void @appendPQExpBufferStr(ptr noundef %8, ptr noundef @.str.580)
  %18 = load ptr, ptr %5, align 8
  %19 = icmp ne ptr %18, null
  br i1 %19, label %20, label %25

20:                                               ; preds = %17
  %21 = load ptr, ptr %5, align 8
  %22 = call zeroext i1 @validateSQLNamePattern(ptr noundef %8, ptr noundef %21, i1 noundef zeroext false, i1 noundef zeroext false, ptr noundef null, ptr noundef @.str.574, ptr noundef null, ptr noundef null, ptr noundef %11, i32 noundef 1)
  br i1 %22, label %24, label %23

23:                                               ; preds = %20
  br label %52

24:                                               ; preds = %20
  br label %25

25:                                               ; preds = %24, %17
  %26 = load ptr, ptr %6, align 8
  %27 = icmp ne ptr %26, null
  br i1 %27, label %28, label %36

28:                                               ; preds = %25
  %29 = load i8, ptr %11, align 1, !range !4, !noundef !5
  %30 = trunc i8 %29 to i1
  %31 = select i1 %30, ptr @.str.582, ptr @.str.583
  call void (ptr, ptr, ...) @appendPQExpBuffer(ptr noundef %8, ptr noundef @.str.581, ptr noundef %31)
  %32 = load ptr, ptr %6, align 8
  %33 = call zeroext i1 @validateSQLNamePattern(ptr noundef %8, ptr noundef %32, i1 noundef zeroext true, i1 noundef zeroext false, ptr noundef @.str.575, ptr noundef @.str.108, ptr noundef @.str.109, ptr noundef @.str.110, ptr noundef null, i32 noundef 3)
  br i1 %33, label %35, label %34

34:                                               ; preds = %28
  br label %52

35:                                               ; preds = %28
  call void @appendPQExpBufferStr(ptr noundef %8, ptr noundef @.str.584)
  br label %36

36:                                               ; preds = %35, %25
  call void @appendPQExpBufferStr(ptr noundef %8, ptr noundef @.str.111)
  %37 = getelementptr inbounds nuw %struct.PQExpBufferData, ptr %8, i32 0, i32 0
  %38 = load ptr, ptr %37, align 8
  %39 = call ptr @PSQLexec(ptr noundef %38)
  store ptr %39, ptr %9, align 8
  call void @termPQExpBuffer(ptr noundef %8)
  %40 = load ptr, ptr %9, align 8
  %41 = icmp ne ptr %40, null
  br i1 %41, label %43, label %42

42:                                               ; preds = %36
  store i1 false, ptr %4, align 1
  store i32 1, ptr %12, align 4
  br label %53

43:                                               ; preds = %36
  %44 = getelementptr inbounds nuw %struct.printQueryOpt, ptr %10, i32 0, i32 2
  store ptr @.str.585, ptr %44, align 8
  %45 = getelementptr inbounds nuw %struct.printQueryOpt, ptr %10, i32 0, i32 4
  store i8 1, ptr %45, align 8
  %46 = getelementptr inbounds nuw %struct.printQueryOpt, ptr %10, i32 0, i32 5
  store ptr @listOperatorFamilies.translate_columns, ptr %46, align 8
  %47 = getelementptr inbounds nuw %struct.printQueryOpt, ptr %10, i32 0, i32 6
  store i32 4, ptr %47, align 8
  %48 = load ptr, ptr %9, align 8
  %49 = load ptr, ptr getelementptr inbounds nuw (%struct._psqlSettings, ptr @pset, i32 0, i32 2), align 8
  %50 = load ptr, ptr getelementptr inbounds nuw (%struct._psqlSettings, ptr @pset, i32 0, i32 28), align 8
  call void @printQuery(ptr noundef %48, ptr noundef %10, ptr noundef %49, i1 noundef zeroext false, ptr noundef %50)
  %51 = load ptr, ptr %9, align 8
  call void @PQclear(ptr noundef %51)
  store i1 true, ptr %4, align 1
  store i32 1, ptr %12, align 4
  br label %53

52:                                               ; preds = %34, %23
  call void @termPQExpBuffer(ptr noundef %8)
  store i1 false, ptr %4, align 1
  store i32 1, ptr %12, align 4
  br label %53

53:                                               ; preds = %52, %43, %42
  call void @llvm.lifetime.end.p0(i64 1, ptr %11) #8
  call void @llvm.lifetime.end.p0(i64 168, ptr %10) #8
  call void @llvm.lifetime.end.p0(i64 8, ptr %9) #8
  call void @llvm.lifetime.end.p0(i64 24, ptr %8) #8
  %54 = load i1, ptr %4, align 1
  ret i1 %54
}