; Function Attrs: nounwind uwtable
define dso_local noundef zeroext i1 @listOperatorFamilies(ptr noundef %0, ptr noundef %1, i1 noundef zeroext %2) local_unnamed_addr #0 {
  %4 = alloca %struct.PQExpBufferData, align 8
  %5 = alloca i32, align 4
  %6 = alloca %struct.PQExpBufferData, align 8
  %7 = alloca %struct.printQueryOpt, align 8
  call void @llvm.lifetime.start.p0(i64 24, ptr nonnull %6) #8
  call void @llvm.lifetime.start.p0(i64 168, ptr nonnull %7) #8
  call void @llvm.memcpy.p0.p0.i64(ptr noundef nonnull align 8 dereferenceable(168) %7, ptr noundef nonnull align 8 dereferenceable(168) getelementptr inbounds nuw (i8, ptr @pset, i64 48), i64 168, i1 false)
  call void @initPQExpBuffer(ptr noundef nonnull %6) #8
  call void (ptr, ptr, ...) @printfPQExpBuffer(ptr noundef nonnull %6, ptr noundef nonnull @.str.577, ptr noundef nonnull @.str.566, ptr noundef nonnull @.str.571, ptr noundef nonnull @.str.578) #8
  br i1 %2, label %8, label %9

8:                                                ; preds = %3
  call void (ptr, ptr, ...) @appendPQExpBuffer(ptr noundef nonnull %6, ptr noundef nonnull @.str.579, ptr noundef nonnull @.str.26) #8
  br label %9

9:                                                ; preds = %8, %3
  call void @appendPQExpBufferStr(ptr noundef nonnull %6, ptr noundef nonnull @.str.580) #8
  %.not = icmp eq ptr %0, null
  br i1 %.not, label %15, label %10

10:                                               ; preds = %9
  call void @llvm.lifetime.start.p0(i64 24, ptr nonnull %4) #8
  call void @llvm.lifetime.start.p0(i64 4, ptr nonnull %5) #8
  call void @initPQExpBuffer(ptr noundef nonnull %4) #8
  %11 = load ptr, ptr @pset, align 8
  %12 = call zeroext i1 @processSQLNamePattern(ptr noundef %11, ptr noundef nonnull %6, ptr noundef nonnull %0, i1 noundef zeroext false, i1 noundef zeroext false, ptr noundef null, ptr noundef nonnull @.str.574, ptr noundef null, ptr noundef null, ptr noundef nonnull %4, ptr noundef nonnull %5) #8
  %13 = load i32, ptr %5, align 4
  %.not19.i = icmp slt i32 %13, 1
  br i1 %.not19.i, label %validateSQLNamePattern.exit.thread, label %validateSQLNamePattern.exit

validateSQLNamePattern.exit.thread:               ; preds = %10
  call void @termPQExpBuffer(ptr noundef nonnull %4) #8
  call void @llvm.lifetime.end.p0(i64 4, ptr nonnull %5) #8
  call void @llvm.lifetime.end.p0(i64 24, ptr nonnull %4) #8
  %14 = select i1 %12, ptr @.str.582, ptr @.str.583
  br label %15

validateSQLNamePattern.exit:                      ; preds = %10
  call void (i32, i32, ptr, ...) @pg_log_generic(i32 noundef 4, i32 noundef 0, ptr noundef nonnull @.str.912, ptr noundef nonnull %0) #8
  call void @termPQExpBuffer(ptr noundef nonnull %4) #8
  call void @llvm.lifetime.end.p0(i64 4, ptr nonnull %5) #8
  call void @llvm.lifetime.end.p0(i64 24, ptr nonnull %4) #8
  br label %29

15:                                               ; preds = %validateSQLNamePattern.exit.thread, %9
  %.013 = phi ptr [ @.str.583, %9 ], [ %14, %validateSQLNamePattern.exit.thread ]
  %.not11 = icmp eq ptr %1, null
  br i1 %.not11, label %19, label %16

16:                                               ; preds = %15
  call void (ptr, ptr, ...) @appendPQExpBuffer(ptr noundef nonnull %6, ptr noundef nonnull @.str.581, ptr noundef nonnull %.013) #8
  %17 = call fastcc zeroext i1 @validateSQLNamePattern(ptr noundef %6, ptr noundef nonnull %1, i1 noundef zeroext true, i1 noundef zeroext false, ptr noundef nonnull @.str.575, ptr noundef nonnull @.str.108, ptr noundef nonnull @.str.109, ptr noundef nonnull @.str.110, ptr noundef null, i32 noundef 3)
  br i1 %17, label %18, label %29

18:                                               ; preds = %16
  call void @appendPQExpBufferStr(ptr noundef nonnull %6, ptr noundef nonnull @.str.584) #8
  br label %19

19:                                               ; preds = %18, %15
  call void @appendPQExpBufferStr(ptr noundef nonnull %6, ptr noundef nonnull @.str.111) #8
  %20 = load ptr, ptr %6, align 8
  %21 = call ptr @PSQLexec(ptr noundef %20) #8
  call void @termPQExpBuffer(ptr noundef nonnull %6) #8
  %.not12 = icmp eq ptr %21, null
  br i1 %.not12, label %30, label %22

22:                                               ; preds = %19
  %23 = getelementptr inbounds nuw i8, ptr %7, i64 128
  store ptr @.str.585, ptr %23, align 8
  %24 = getelementptr inbounds nuw i8, ptr %7, i64 144
  store i8 1, ptr %24, align 8
  %25 = getelementptr inbounds nuw i8, ptr %7, i64 152
  store ptr @listOperatorFamilies.translate_columns, ptr %25, align 8
  %26 = getelementptr inbounds nuw i8, ptr %7, i64 160
  store i32 4, ptr %26, align 8
  %27 = load ptr, ptr getelementptr inbounds nuw (i8, ptr @pset, i64 16), align 8
  %28 = load ptr, ptr getelementptr inbounds nuw (i8, ptr @pset, i64 376), align 8
  call void @printQuery(ptr noundef nonnull %21, ptr noundef nonnull %7, ptr noundef %27, i1 noundef zeroext false, ptr noundef %28) #8
  call void @PQclear(ptr noundef nonnull %21) #8
  br label %30

29:                                               ; preds = %validateSQLNamePattern.exit, %16
  call void @termPQExpBuffer(ptr noundef nonnull %6) #8
  br label %30

30:                                               ; preds = %19, %29, %22
  %.0 = phi i1 [ true, %22 ], [ false, %29 ], [ false, %19 ]
  call void @llvm.lifetime.end.p0(i64 168, ptr nonnull %7) #8
  call void @llvm.lifetime.end.p0(i64 24, ptr nonnull %6) #8
  ret i1 %.0
}